; Function Attrs: nounwind uwtable
define void @Sbd_ManCutReload(ptr readnone captures(none) %0, ptr noundef readonly captures(none) %1, i32 noundef %2, ptr noundef readonly captures(none) %3, ptr noundef captures(none) initializes((4, 8)) %4, ptr noundef captures(none) initializes((4, 8)) %5) local_unnamed_addr #0 {
  %7 = getelementptr inbounds nuw i8, ptr %4, i64 4
  store i32 0, ptr %7, align 4, !tbaa !24
  %8 = getelementptr inbounds nuw i8, ptr %5, i64 4
  store i32 0, ptr %8, align 4, !tbaa !24
  %9 = getelementptr i8, ptr %3, i64 4
  %.val1523 = load i32, ptr %9, align 4, !tbaa !24
  %10 = icmp sgt i32 %.val1523, 0
  br i1 %10, label %.lr.ph, label %.critedge

.lr.ph:                                           ; preds = %6
  %11 = getelementptr i8, ptr %3, i64 8
  %12 = getelementptr i8, ptr %1, i64 8
  %.phi.trans.insert.i17 = getelementptr inbounds nuw i8, ptr %5, i64 8
  %.phi.trans.insert.i = getelementptr inbounds nuw i8, ptr %4, i64 8
  br label %13

13:                                               ; preds = %.lr.ph, %74
  %indvars.iv = phi i64 [ 0, %.lr.ph ], [ %indvars.iv.next, %74 ]
  %.val14 = load ptr, ptr %11, align 8, !tbaa !28
  %14 = getelementptr inbounds nuw i32, ptr %.val14, i64 %indvars.iv
  %15 = load i32, ptr %14, align 4, !tbaa !33
  %.val = load ptr, ptr %12, align 8, !tbaa !28
  %16 = sext i32 %15 to i64
  %17 = getelementptr inbounds i32, ptr %.val, i64 %16
  %18 = load i32, ptr %17, align 4, !tbaa !33
  %19 = icmp eq i32 %18, %2
  br i1 %19, label %20, label %47

20:                                               ; preds = %13
  %21 = load i32, ptr %7, align 4, !tbaa !24
  %22 = load i32, ptr %4, align 8, !tbaa !27
  %23 = icmp eq i32 %21, %22
  br i1 %23, label %24, label %.Vec_IntGrow.exit10_crit_edge.i

.Vec_IntGrow.exit10_crit_edge.i:                  ; preds = %20
  %.pre.i = load ptr, ptr %.phi.trans.insert.i, align 8, !tbaa !28
  br label %Vec_IntPush.exit

24:                                               ; preds = %20
  %25 = icmp slt i32 %21, 16
  br i1 %25, label %26, label %33

26:                                               ; preds = %24
  %27 = load ptr, ptr %.phi.trans.insert.i, align 8, !tbaa !28
  %.not9.i.i = icmp eq ptr %27, null
  br i1 %.not9.i.i, label %30, label %28

28:                                               ; preds = %26
  %29 = tail call dereferenceable_or_null(64) ptr @realloc(ptr noundef nonnull %27, i64 noundef 64) #19
  br label %Vec_IntGrow.exit.i

30:                                               ; preds = %26
  %31 = tail call noalias dereferenceable_or_null(64) ptr @malloc(i64 noundef 64) #18
  br label %Vec_IntGrow.exit.i

Vec_IntGrow.exit.i:                               ; preds = %30, %28
  %32 = phi ptr [ %29, %28 ], [ %31, %30 ]
  store ptr %32, ptr %.phi.trans.insert.i, align 8, !tbaa !28
  store i32 16, ptr %4, align 8, !tbaa !27
  br label %Vec_IntPush.exit

33:                                               ; preds = %24
  %34 = shl nuw nsw i32 %21, 1
  %35 = load ptr, ptr %.phi.trans.insert.i, align 8, !tbaa !28
  %.not9.i9.i = icmp eq ptr %35, null
  %36 = zext nneg i32 %34 to i64
  %37 = shl nuw nsw i64 %36, 2
  br i1 %.not9.i9.i, label %40, label %38

38:                                               ; preds = %33
  %39 = tail call ptr @realloc(ptr noundef nonnull %35, i64 noundef %37) #19
  br label %42

40:                                               ; preds = %33
  %41 = tail call noalias ptr @malloc(i64 noundef %37) #18
  br label %42

42:                                               ; preds = %40, %38
  %43 = phi ptr [ %39, %38 ], [ %41, %40 ]
  store ptr %43, ptr %.phi.trans.insert.i, align 8, !tbaa !28
  store i32 %34, ptr %4, align 8, !tbaa !27
  br label %Vec_IntPush.exit

Vec_IntPush.exit:                                 ; preds = %.Vec_IntGrow.exit10_crit_edge.i, %Vec_IntGrow.exit.i, %42
  %44 = phi ptr [ %.pre.i, %.Vec_IntGrow.exit10_crit_edge.i ], [ %43, %42 ], [ %32, %Vec_IntGrow.exit.i ]
  %45 = load i32, ptr %7, align 4, !tbaa !24
  %46 = add nsw i32 %45, 1
  store i32 %46, ptr %7, align 4, !tbaa !24
  br label %74

47:                                               ; preds = %13
  %48 = load i32, ptr %8, align 4, !tbaa !24
  %49 = load i32, ptr %5, align 8, !tbaa !27
  %50 = icmp eq i32 %48, %49
  br i1 %50, label %51, label %.Vec_IntGrow.exit10_crit_edge.i16

.Vec_IntGrow.exit10_crit_edge.i16:                ; preds = %47
  %.pre.i18 = load ptr, ptr %.phi.trans.insert.i17, align 8, !tbaa !28
  br label %Vec_IntPush.exit22

51:                                               ; preds = %47
  %52 = icmp slt i32 %48, 16
  br i1 %52, label %53, label %60

53:                                               ; preds = %51
  %54 = load ptr, ptr %.phi.trans.insert.i17, align 8, !tbaa !28
  %.not9.i.i20 = icmp eq ptr %54, null
  br i1 %.not9.i.i20, label %57, label %55

55:                                               ; preds = %53
  %56 = tail call dereferenceable_or_null(64) ptr @realloc(ptr noundef nonnull %54, i64 noundef 64) #19
  br label %Vec_IntGrow.exit.i21

57:                                               ; preds = %53
  %58 = tail call noalias dereferenceable_or_null(64) ptr @malloc(i64 noundef 64) #18
  br label %Vec_IntGrow.exit.i21

Vec_IntGrow.exit.i21:                             ; preds = %57, %55
  %59 = phi ptr [ %56, %55 ], [ %58, %57 ]
  store ptr %59, ptr %.phi.trans.insert.i17, align 8, !tbaa !28
  store i32 16, ptr %5, align 8, !tbaa !27
  br label %Vec_IntPush.exit22

60:                                               ; preds = %51
  %61 = shl nuw nsw i32 %48, 1
  %62 = load ptr, ptr %.phi.trans.insert.i17, align 8, !tbaa !28
  %.not9.i9.i19 = icmp eq ptr %62, null
  %63 = zext nneg i32 %61 to i64
  %64 = shl nuw nsw i64 %63, 2
  br i1 %.not9.i9.i19, label %67, label %65

65:                                               ; preds = %60
  %66 = tail call ptr @realloc(ptr noundef nonnull %62, i64 noundef %64) #19
  br label %69

67:                                               ; preds = %60
  %68 = tail call noalias ptr @malloc(i64 noundef %64) #18
  br label %69

69:                                               ; preds = %67, %65
  %70 = phi ptr [ %66, %65 ], [ %68, %67 ]
  store ptr %70, ptr %.phi.trans.insert.i17, align 8, !tbaa !28
  store i32 %61, ptr %5, align 8, !tbaa !27
  br label %Vec_IntPush.exit22

Vec_IntPush.exit22:                               ; preds = %.Vec_IntGrow.exit10_crit_edge.i16, %Vec_IntGrow.exit.i21, %69
  %71 = phi ptr [ %.pre.i18, %.Vec_IntGrow.exit10_crit_edge.i16 ], [ %70, %69 ], [ %59, %Vec_IntGrow.exit.i21 ]
  %72 = load i32, ptr %8, align 4, !tbaa !24
  %73 = add nsw i32 %72, 1
  store i32 %73, ptr %8, align 4, !tbaa !24
  br label %74

74:                                               ; preds = %Vec_IntPush.exit, %Vec_IntPush.exit22
  %.sink = phi i32 [ %45, %Vec_IntPush.exit ], [ %72, %Vec_IntPush.exit22 ]
  %.sink26 = phi ptr [ %44, %Vec_IntPush.exit ], [ %71, %Vec_IntPush.exit22 ]
  %75 = sext i32 %.sink to i64
  %76 = getelementptr inbounds i32, ptr %.sink26, i64 %75
  store i32 %15, ptr %76, align 4, !tbaa !33
  %indvars.iv.next = add nuw nsw i64 %indvars.iv, 1
  %.val15 = load i32, ptr %9, align 4, !tbaa !24
  %77 = sext i32 %.val15 to i64
  %78 = icmp slt i64 %indvars.iv.next, %77
  br i1 %78, label %13, label %.critedge, !llvm.loop !60

.critedge:                                        ; preds = %74, %6
  ret void
}